; Function Attrs: nounwind uwtable
define internal void @Float32_To_Int8_Dither(ptr noundef writeonly captures(none) %0, i32 noundef %1, ptr noundef readonly captures(none) %2, i32 noundef %3, i32 noundef %4, ptr noundef %5) #3 {
  %.not14 = icmp eq i32 %4, 0
  br i1 %.not14, label %._crit_edge, label %.lr.ph

.lr.ph:                                           ; preds = %6
  %7 = sext i32 %3 to i64
  %8 = sext i32 %1 to i64
  br label %9

9:                                                ; preds = %.lr.ph, %9
  %.017 = phi i32 [ %4, %.lr.ph ], [ %10, %9 ]
  %.01216 = phi ptr [ %2, %.lr.ph ], [ %16, %9 ]
  %.01315 = phi ptr [ %0, %.lr.ph ], [ %17, %9 ]
  %10 = add i32 %.017, -1
  %11 = tail call float @PaUtil_GenerateFloatTriangularDither(ptr noundef %5) #9
  %12 = load float, ptr %.01216, align 4, !tbaa !68
  %13 = tail call float @llvm.fmuladd.f32(float %12, float 1.260000e+02, float %11)
  %14 = fptosi float %13 to i32
  %15 = trunc i32 %14 to i8
  store i8 %15, ptr %.01315, align 1, !tbaa !76
  %16 = getelementptr inbounds float, ptr %.01216, i64 %7
  %17 = getelementptr inbounds i8, ptr %.01315, i64 %8
  %.not = icmp eq i32 %10, 0
  br i1 %.not, label %._crit_edge, label %9, !llvm.loop !88

._crit_edge:                                      ; preds = %9, %6
  ret void
}